; Function Attrs: null_pointer_is_valid sspstrong uwtable
define internal void @mysql_dissect_exec_json(ptr noundef %0, ptr noundef %1, ptr noundef captures(none) %2, ptr noundef %3, i32 %4) #0 {
  %6 = tail call ptr @find_dissector(ptr noundef nonnull @.str.1281)
  store ptr %6, ptr @mysql_dissect_exec_json.json_handle, align 8
  %7 = load i32, ptr %2, align 4
  %8 = tail call zeroext i8 @tvb_get_uint8(ptr noundef %0, i32 noundef %7)
  switch i8 %8, label %20 [
    i8 -5, label %tvb_get_fle.exit
    i8 -4, label %9
    i8 -3, label %13
    i8 -2, label %17
  ]

9:                                                ; preds = %5
  %10 = add i32 %7, 1
  %11 = tail call zeroext i16 @tvb_get_uint16(ptr noundef %0, i32 noundef %10, i32 noundef -2147483648)
  %12 = zext i16 %11 to i64
  br label %tvb_get_fle.exit

13:                                               ; preds = %5
  %14 = add i32 %7, 1
  %15 = tail call i32 @tvb_get_uint24(ptr noundef %0, i32 noundef %14, i32 noundef -2147483648)
  %16 = zext i32 %15 to i64
  br label %tvb_get_fle.exit

17:                                               ; preds = %5
  %18 = add i32 %7, 1
  %19 = tail call i64 @tvb_get_uint64(ptr noundef %0, i32 noundef %18, i32 noundef -2147483648)
  br label %tvb_get_fle.exit

20:                                               ; preds = %5
  %21 = tail call zeroext i8 @tvb_get_uint8(ptr noundef %0, i32 noundef %7)
  %22 = zext i8 %21 to i64
  br label %tvb_get_fle.exit

tvb_get_fle.exit:                                 ; preds = %9, %13, %17, %20, %5
  %.0 = phi i64 [ 0, %5 ], [ %22, %20 ], [ %19, %17 ], [ %16, %13 ], [ %12, %9 ]
  %.025.i = phi i32 [ 1, %5 ], [ 1, %20 ], [ 9, %17 ], [ 4, %13 ], [ 3, %9 ]
  %23 = load i32, ptr @hf_mysql_exec_field_json_length, align 4
  %24 = load i32, ptr %2, align 4
  %25 = tail call ptr @proto_tree_add_item(ptr noundef %3, i32 noundef %23, ptr noundef %0, i32 noundef %24, i32 noundef %.025.i, i32 noundef 0)
  %26 = load i32, ptr %2, align 4
  %27 = add i32 %26, %.025.i
  store i32 %27, ptr %2, align 4
  %28 = trunc i64 %.0 to i32
  %29 = tail call ptr @tvb_new_subset_length(ptr noundef %0, i32 noundef %27, i32 noundef %28)
  %30 = load ptr, ptr @mysql_dissect_exec_json.json_handle, align 8
  %31 = tail call i32 @call_dissector_only(ptr noundef %30, ptr noundef %29, ptr noundef %1, ptr noundef %3, ptr noundef null)
  %32 = load i32, ptr %2, align 4
  %33 = add i32 %32, %28
  store i32 %33, ptr %2, align 4
  ret void
}